target datalayout = "e-m:e-p270:32:32-p271:32:32-p272:64:64-i64:64-i128:128-f80:128-n8:16:32:64-S128"
target triple = "x86_64-pc-linux-gnu"

%class.GraphRemoveRedundant = type <{ %class.GraphAlg, i8, [7 x i8] }>
%class.GraphAlg = type { ptr, ptr }
%"class.V3List<V3GraphVertex, &V3GraphVertex::links>::SimpleItertatorImpl" = type { ptr }
%class.V3Graph = type { ptr, %class.V3List }
%class.V3List = type { ptr, ptr }
%class.V3ListLinks = type { ptr, ptr }
%class.V3GraphVertex = type { ptr, %class.V3ListLinks, %class.V3List.0, %class.V3List.1, double, i32, i32, %union.anon }
%class.V3List.0 = type { ptr, ptr }
%class.V3List.1 = type { ptr, ptr }
%union.anon = type { ptr }

; Function Attrs: mustprogress nounwind uwtable
define linkonce_odr dso_local noundef nonnull align 8 dereferenceable(16) ptr @_ZN13V3GraphVertex5linksEv(ptr noundef nonnull align 8 dereferenceable(80) %0) #5 comdat align 2 {
  %2 = alloca ptr, align 8
  store ptr %0, ptr %2, align 8
  %3 = load ptr, ptr %2, align 8
  %4 = getelementptr inbounds %class.V3GraphVertex, ptr %3, i32 0, i32 1
  ret ptr %4
}

; Function Attrs: mustprogress uwtable
define linkonce_odr dso_local ptr @_ZN6V3ListI13V3GraphVertexXadL_ZNS0_5linksEvEES0_E3endEv(ptr noundef nonnull align 8 dereferenceable(16) %0) #4 comdat align 2 {
  %2 = alloca ptr, align 8
  %3 = alloca ptr, align 8
  %4 = alloca %"class.V3List<V3GraphVertex, &V3GraphVertex::links>::SimpleItertatorImpl", align 8
  %5 = alloca ptr, align 8
  store ptr %0, ptr %5, align 8
  store ptr %4, ptr %2, align 8
  store ptr null, ptr %3, align 8
  %6 = load ptr, ptr %2, align 8
  %7 = load ptr, ptr %3, align 8
  store ptr %7, ptr %6, align 8
  %8 = getelementptr inbounds %"class.V3List<V3GraphVertex, &V3GraphVertex::links>::SimpleItertatorImpl", ptr %4, i32 0, i32 0
  %9 = load ptr, ptr %8, align 8
  ret ptr %9
}

; Function Attrs: mustprogress uwtable
define linkonce_odr dso_local ptr @_ZN6V3ListI13V3GraphVertexXadL_ZNS0_5linksEvEES0_E5beginEv(ptr noundef nonnull align 8 dereferenceable(16) %0) #4 comdat align 2 {
  %2 = alloca ptr, align 8
  %3 = alloca ptr, align 8
  %4 = alloca %"class.V3List<V3GraphVertex, &V3GraphVertex::links>::SimpleItertatorImpl", align 8
  %5 = alloca ptr, align 8
  store ptr %0, ptr %5, align 8
  %6 = load ptr, ptr %5, align 8
  %7 = getelementptr inbounds %class.V3List, ptr %6, i32 0, i32 0
  %8 = load ptr, ptr %7, align 8
  store ptr %4, ptr %2, align 8
  store ptr %8, ptr %3, align 8
  %9 = load ptr, ptr %2, align 8
  %10 = load ptr, ptr %3, align 8
  store ptr %10, ptr %9, align 8
  %11 = getelementptr inbounds %"class.V3List<V3GraphVertex, &V3GraphVertex::links>::SimpleItertatorImpl", ptr %4, i32 0, i32 0
  %12 = load ptr, ptr %11, align 8
  ret ptr %12
}

; Function Attrs: mustprogress nounwind uwtable
define linkonce_odr dso_local noundef nonnull align 8 dereferenceable(16) ptr @_ZN7V3Graph8verticesEv(ptr noundef nonnull align 8 dereferenceable(24) %0) #5 comdat align 2 {
  %2 = alloca ptr, align 8
  store ptr %0, ptr %2, align 8
  %3 = load ptr, ptr %2, align 8
  %4 = getelementptr inbounds %class.V3Graph, ptr %3, i32 0, i32 1
  ret ptr %4
}

; Function Attrs: mustprogress uwtable
define linkonce_odr dso_local void @_ZN20GraphRemoveRedundant4mainEv(ptr noundef nonnull align 8 dereferenceable(24) %0) #4 comdat align 2 {
  %2 = alloca ptr, align 8
  %3 = alloca ptr, align 8
  %4 = alloca ptr, align 8
  %5 = alloca ptr, align 8
  %6 = alloca ptr, align 8
  %7 = alloca ptr, align 8
  %8 = alloca ptr, align 8
  %9 = alloca ptr, align 8
  %10 = alloca ptr, align 8
  %11 = alloca ptr, align 8
  %12 = alloca ptr, align 8
  %13 = alloca ptr, align 8
  %14 = alloca %"class.V3List<V3GraphVertex, &V3GraphVertex::links>::SimpleItertatorImpl", align 8
  %15 = alloca %"class.V3List<V3GraphVertex, &V3GraphVertex::links>::SimpleItertatorImpl", align 8
  %16 = alloca ptr, align 8
  store ptr %0, ptr %12, align 8
  %17 = load ptr, ptr %12, align 8
  %18 = getelementptr inbounds %class.GraphAlg, ptr %17, i32 0, i32 0
  %19 = load ptr, ptr %18, align 8
  %20 = call noundef nonnull align 8 dereferenceable(16) ptr @_ZN7V3Graph8verticesEv(ptr noundef nonnull align 8 dereferenceable(24) %19)
  store ptr %20, ptr %13, align 8
  %21 = load ptr, ptr %13, align 8
  %22 = call ptr @_ZN6V3ListI13V3GraphVertexXadL_ZNS0_5linksEvEES0_E5beginEv(ptr noundef nonnull align 8 dereferenceable(16) %21)
  %23 = getelementptr inbounds %"class.V3List<V3GraphVertex, &V3GraphVertex::links>::SimpleItertatorImpl", ptr %14, i32 0, i32 0
  store ptr %22, ptr %23, align 8
  %24 = load ptr, ptr %13, align 8
  %25 = call ptr @_ZN6V3ListI13V3GraphVertexXadL_ZNS0_5linksEvEES0_E3endEv(ptr noundef nonnull align 8 dereferenceable(16) %24)
  %26 = getelementptr inbounds %"class.V3List<V3GraphVertex, &V3GraphVertex::links>::SimpleItertatorImpl", ptr %15, i32 0, i32 0
  store ptr %25, ptr %26, align 8
  br label %27

27:                                               ; preds = %51, %1
  store ptr %14, ptr %10, align 8
  store ptr %15, ptr %11, align 8
  %28 = load ptr, ptr %10, align 8
  %29 = load ptr, ptr %28, align 8
  %30 = load ptr, ptr %11, align 8
  %31 = load ptr, ptr %30, align 8
  %32 = icmp ne ptr %29, %31
  br i1 %32, label %33, label %58

33:                                               ; preds = %27
  store ptr %14, ptr %9, align 8
  %34 = load ptr, ptr %9, align 8
  %35 = load ptr, ptr %34, align 8
  store ptr %35, ptr %6, align 8
  %36 = load ptr, ptr %6, align 8
  store ptr %36, ptr %5, align 8
  %37 = load ptr, ptr %5, align 8
  %38 = call noundef nonnull align 8 dereferenceable(16) ptr @_ZN13V3GraphVertex5linksEv(ptr noundef nonnull align 8 dereferenceable(80) %37)
  %39 = load ptr, ptr %38, align 8
  %40 = load ptr, ptr %34, align 8
  store ptr %39, ptr %2, align 8
  store ptr %40, ptr %3, align 8
  %41 = load ptr, ptr %2, align 8
  %42 = icmp ne ptr %41, null
  br i1 %42, label %43, label %45

43:                                               ; preds = %33
  %44 = load ptr, ptr %2, align 8
  br label %47

45:                                               ; preds = %33
  %46 = load ptr, ptr %3, align 8
  br label %47

47:                                               ; preds = %45, %43
  %48 = phi ptr [ %44, %43 ], [ %46, %45 ]
  call void @llvm.prefetch.p0(ptr %48, i32 1, i32 3, i32 1)
  %49 = load ptr, ptr %34, align 8
  store ptr %49, ptr %16, align 8
  %50 = load ptr, ptr %16, align 8
  call void @_ZN20GraphRemoveRedundant13vertexIterateEP13V3GraphVertex(ptr noundef nonnull align 8 dereferenceable(24) %17, ptr noundef %50)
  br label %51

51:                                               ; preds = %47
  store ptr %14, ptr %8, align 8
  %52 = load ptr, ptr %8, align 8
  %53 = load ptr, ptr %52, align 8
  store ptr %53, ptr %7, align 8
  %54 = load ptr, ptr %7, align 8
  store ptr %54, ptr %4, align 8
  %55 = load ptr, ptr %4, align 8
  %56 = call noundef nonnull align 8 dereferenceable(16) ptr @_ZN13V3GraphVertex5linksEv(ptr noundef nonnull align 8 dereferenceable(80) %55)
  %57 = load ptr, ptr %56, align 8
  store ptr %57, ptr %52, align 8
  br label %27

58:                                               ; preds = %27
  ret void
}

; Function Attrs: mustprogress nounwind uwtable
define linkonce_odr dso_local void @_ZN8GraphAlgI7V3GraphEC2EPS0_PFbPK11V3GraphEdgeE(ptr noundef nonnull align 8 dereferenceable(16) %0, ptr noundef %1, ptr noundef %2) unnamed_addr #5 comdat align 2 {
  %4 = alloca ptr, align 8
  %5 = alloca ptr, align 8
  %6 = alloca ptr, align 8
  store ptr %0, ptr %4, align 8
  store ptr %1, ptr %5, align 8
  store ptr %2, ptr %6, align 8
  %7 = load ptr, ptr %4, align 8
  %8 = getelementptr inbounds %class.GraphAlg, ptr %7, i32 0, i32 0
  %9 = load ptr, ptr %5, align 8
  store ptr %9, ptr %8, align 8
  %10 = getelementptr inbounds %class.GraphAlg, ptr %7, i32 0, i32 1
  %11 = load ptr, ptr %6, align 8
  store ptr %11, ptr %10, align 8
  ret void
}

; Function Attrs: mustprogress uwtable
define linkonce_odr dso_local void @_ZN20GraphRemoveRedundantC2EP7V3GraphPFbPK11V3GraphEdgeEb(ptr noundef nonnull align 8 dereferenceable(24) %0, ptr noundef %1, ptr noundef %2, i1 noundef zeroext %3) unnamed_addr #4 comdat align 2 {
  %5 = alloca ptr, align 8
  %6 = alloca ptr, align 8
  %7 = alloca ptr, align 8
  %8 = alloca i8, align 1
  store ptr %0, ptr %5, align 8
  store ptr %1, ptr %6, align 8
  store ptr %2, ptr %7, align 8
  %9 = zext i1 %3 to i8
  store i8 %9, ptr %8, align 1
  %10 = load ptr, ptr %5, align 8
  %11 = load ptr, ptr %6, align 8
  %12 = load ptr, ptr %7, align 8
  call void @_ZN8GraphAlgI7V3GraphEC2EPS0_PFbPK11V3GraphEdgeE(ptr noundef nonnull align 8 dereferenceable(16) %10, ptr noundef %11, ptr noundef %12)
  %13 = getelementptr inbounds %class.GraphRemoveRedundant, ptr %10, i32 0, i32 1
  %14 = load i8, ptr %8, align 1
  %15 = trunc i8 %14 to i1
  %16 = zext i1 %15 to i8
  store i8 %16, ptr %13, align 8
  call void @_ZN20GraphRemoveRedundant4mainEv(ptr noundef nonnull align 8 dereferenceable(24) %10)
  ret void
}

; Function Attrs: mustprogress uwtable
define dso_local void @_ZN7V3Graph23removeRedundantEdgesMaxEPFbPK11V3GraphEdgeE(ptr noundef nonnull align 8 dereferenceable(24) %0, ptr noundef %1) #4 align 2 {
  %3 = alloca ptr, align 8
  %4 = alloca ptr, align 8
  %5 = alloca %class.GraphRemoveRedundant, align 8
  store ptr %0, ptr %3, align 8
  store ptr %1, ptr %4, align 8
  %6 = load ptr, ptr %3, align 8
  %7 = load ptr, ptr %4, align 8
  call void @_ZN20GraphRemoveRedundantC2EP7V3GraphPFbPK11V3GraphEdgeEb(ptr noundef nonnull align 8 dereferenceable(24) %5, ptr noundef %6, ptr noundef %7, i1 noundef zeroext false)
  ret void
}